target datalayout = "e-m:e-p270:32:32-p271:32:32-p272:64:64-i64:64-i128:128-f80:128-n8:16:32:64-S128"
target triple = "x86_64-pc-linux-gnu"

@.str.18 = private unnamed_addr constant [36 x i8] c"../openssl/test/conf_include_test.c\00", align 1
@conf = internal global ptr null, align 8
@expect_failure = internal global i32 0, align 4
@test_providers = internal global i32 0, align 4
@in = internal global ptr null, align 8
@.str.32 = private unnamed_addr constant [35 x i8] c"NCONF_load_bio(conf, in, &errline)\00", align 1
@.str.33 = private unnamed_addr constant [2 x i8] c"0\00", align 1
@.str.34 = private unnamed_addr constant [23 x i8] c"err = ERR_peek_error()\00", align 1
@.str.35 = private unnamed_addr constant [46 x i8] c"Failure loading the configuration at line %ld\00", align 1
@.str.36 = private unnamed_addr constant [36 x i8] c"Failure expected but did not happen\00", align 1
@.str.37 = private unnamed_addr constant [33 x i8] c"CONF_modules_load(conf, NULL, 0)\00", align 1
@.str.38 = private unnamed_addr constant [28 x i8] c"Failed in CONF_modules_load\00", align 1
@.str.39 = private unnamed_addr constant [59 x i8] c"NCONF_get_number(conf, \22CA_default\22, \22default_days\22, &val)\00", align 1
@.str.40 = private unnamed_addr constant [2 x i8] c"1\00", align 1
@.str.41 = private unnamed_addr constant [11 x i8] c"CA_default\00", align 1
@.str.42 = private unnamed_addr constant [13 x i8] c"default_days\00", align 1
@.str.43 = private unnamed_addr constant [4 x i8] c"val\00", align 1
@.str.44 = private unnamed_addr constant [4 x i8] c"365\00", align 1
@.str.45 = private unnamed_addr constant [23 x i8] c"default_days incorrect\00", align 1
@.str.46 = private unnamed_addr constant [52 x i8] c"NCONF_get_number(conf, \22req\22, \22default_bits\22, &val)\00", align 1
@.str.47 = private unnamed_addr constant [4 x i8] c"req\00", align 1
@.str.48 = private unnamed_addr constant [13 x i8] c"default_bits\00", align 1
@.str.49 = private unnamed_addr constant [5 x i8] c"2048\00", align 1
@.str.50 = private unnamed_addr constant [23 x i8] c"default_bits incorrect\00", align 1
@.str.51 = private unnamed_addr constant [23 x i8] c"req_distinguished_name\00", align 1
@.str.52 = private unnamed_addr constant [20 x i8] c"countryName_default\00", align 1
@.str.53 = private unnamed_addr constant [4 x i8] c"str\00", align 1
@.str.54 = private unnamed_addr constant [5 x i8] c"\22AU\22\00", align 1
@.str.55 = private unnamed_addr constant [3 x i8] c"AU\00", align 1
@.str.56 = private unnamed_addr constant [30 x i8] c"countryName_default incorrect\00", align 1
@.str.57 = private unnamed_addr constant [54 x i8] c"NCONF_get_number(conf, \22null_sect\22, \22activate\22, &val)\00", align 1
@.str.58 = private unnamed_addr constant [10 x i8] c"null_sect\00", align 1
@.str.59 = private unnamed_addr constant [9 x i8] c"activate\00", align 1
@.str.60 = private unnamed_addr constant [28 x i8] c"null provider not activated\00", align 1
@.str.61 = private unnamed_addr constant [57 x i8] c"NCONF_get_number(conf, \22default_sect\22, \22activate\22, &val)\00", align 1
@.str.62 = private unnamed_addr constant [13 x i8] c"default_sect\00", align 1
@.str.63 = private unnamed_addr constant [31 x i8] c"default provider not activated\00", align 1
@.str.64 = private unnamed_addr constant [56 x i8] c"NCONF_get_number(conf, \22legacy_sect\22, \22activate\22, &val)\00", align 1
@.str.65 = private unnamed_addr constant [12 x i8] c"legacy_sect\00", align 1
@.str.66 = private unnamed_addr constant [30 x i8] c"legacy provider not activated\00", align 1

; Function Attrs: nounwind uwtable
define internal i32 @test_load_config() #0 {
  %1 = alloca i32, align 4
  %2 = alloca i64, align 8
  %3 = alloca i64, align 8
  %4 = alloca ptr, align 8
  %5 = alloca i64, align 8
  %6 = alloca i32, align 4
  call void @llvm.lifetime.start.p0(i64 8, ptr %2) #5
  call void @llvm.lifetime.start.p0(i64 8, ptr %3) #5
  call void @llvm.lifetime.start.p0(i64 8, ptr %4) #5
  call void @llvm.lifetime.start.p0(i64 8, ptr %5) #5
  %7 = load ptr, ptr @conf, align 8, !tbaa !9
  %8 = load ptr, ptr @in, align 8, !tbaa !15
  %9 = call i32 @NCONF_load_bio(ptr noundef %7, ptr noundef %8, ptr noundef %2)
  %10 = call i32 @test_int_gt(ptr noundef @.str.18, i32 noundef 86, ptr noundef @.str.32, ptr noundef @.str.33, i32 noundef %9, i32 noundef 0)
  %11 = icmp ne i32 %10, 0
  br i1 %11, label %12, label %17

12:                                               ; preds = %0
  %13 = call i64 @ERR_peek_error()
  store i64 %13, ptr %5, align 8, !tbaa !19
  %14 = trunc i64 %13 to i32
  %15 = call i32 @test_int_eq(ptr noundef @.str.18, i32 noundef 87, ptr noundef @.str.34, ptr noundef @.str.33, i32 noundef %14, i32 noundef 0)
  %16 = icmp ne i32 %15, 0
  br i1 %16, label %23, label %17

17:                                               ; preds = %12, %0
  %18 = load i32, ptr @expect_failure, align 4, !tbaa !11
  %19 = icmp ne i32 %18, 0
  br i1 %19, label %20, label %21

20:                                               ; preds = %17
  store i32 1, ptr %1, align 4
  store i32 1, ptr %6, align 4
  br label %104

21:                                               ; preds = %17
  %22 = load i64, ptr %2, align 8, !tbaa !19
  call void (ptr, ...) @test_note(ptr noundef @.str.35, i64 noundef %22)
  store i32 0, ptr %1, align 4
  store i32 1, ptr %6, align 4
  br label %104

23:                                               ; preds = %12
  %24 = load i32, ptr @expect_failure, align 4, !tbaa !11
  %25 = icmp ne i32 %24, 0
  br i1 %25, label %26, label %27

26:                                               ; preds = %23
  call void (ptr, ...) @test_note(ptr noundef @.str.36)
  store i32 0, ptr %1, align 4
  store i32 1, ptr %6, align 4
  br label %104

27:                                               ; preds = %23
  %28 = load ptr, ptr @conf, align 8, !tbaa !9
  %29 = call i32 @CONF_modules_load(ptr noundef %28, ptr noundef null, i64 noundef 0)
  %30 = call i32 @test_int_gt(ptr noundef @.str.18, i32 noundef 98, ptr noundef @.str.37, ptr noundef @.str.33, i32 noundef %29, i32 noundef 0)
  %31 = icmp ne i32 %30, 0
  br i1 %31, label %33, label %32

32:                                               ; preds = %27
  call void (ptr, ...) @test_note(ptr noundef @.str.38)
  store i32 0, ptr %1, align 4
  store i32 1, ptr %6, align 4
  br label %104

33:                                               ; preds = %27
  store i64 0, ptr %3, align 8, !tbaa !19
  %34 = load ptr, ptr @conf, align 8, !tbaa !9
  %35 = call i32 @NCONF_get_number_e(ptr noundef %34, ptr noundef @.str.41, ptr noundef @.str.42, ptr noundef %3)
  %36 = call i32 @test_int_eq(ptr noundef @.str.18, i32 noundef 105, ptr noundef @.str.39, ptr noundef @.str.40, i32 noundef %35, i32 noundef 1)
  %37 = icmp ne i32 %36, 0
  br i1 %37, label %38, label %43

38:                                               ; preds = %33
  %39 = load i64, ptr %3, align 8, !tbaa !19
  %40 = trunc i64 %39 to i32
  %41 = call i32 @test_int_eq(ptr noundef @.str.18, i32 noundef 106, ptr noundef @.str.43, ptr noundef @.str.44, i32 noundef %40, i32 noundef 365)
  %42 = icmp ne i32 %41, 0
  br i1 %42, label %44, label %43

43:                                               ; preds = %38, %33
  call void (ptr, ...) @test_note(ptr noundef @.str.45)
  store i32 0, ptr %1, align 4
  store i32 1, ptr %6, align 4
  br label %104

44:                                               ; preds = %38
  store i64 0, ptr %3, align 8, !tbaa !19
  %45 = load ptr, ptr @conf, align 8, !tbaa !9
  %46 = call i32 @NCONF_get_number_e(ptr noundef %45, ptr noundef @.str.47, ptr noundef @.str.48, ptr noundef %3)
  %47 = call i32 @test_int_eq(ptr noundef @.str.18, i32 noundef 113, ptr noundef @.str.46, ptr noundef @.str.40, i32 noundef %46, i32 noundef 1)
  %48 = icmp ne i32 %47, 0
  br i1 %48, label %49, label %54

49:                                               ; preds = %44
  %50 = load i64, ptr %3, align 8, !tbaa !19
  %51 = trunc i64 %50 to i32
  %52 = call i32 @test_int_eq(ptr noundef @.str.18, i32 noundef 114, ptr noundef @.str.43, ptr noundef @.str.49, i32 noundef %51, i32 noundef 2048)
  %53 = icmp ne i32 %52, 0
  br i1 %53, label %55, label %54

54:                                               ; preds = %49, %44
  call void (ptr, ...) @test_note(ptr noundef @.str.50)
  store i32 0, ptr %1, align 4
  store i32 1, ptr %6, align 4
  br label %104

55:                                               ; preds = %49
  %56 = load ptr, ptr @conf, align 8, !tbaa !9
  %57 = call ptr @NCONF_get_string(ptr noundef %56, ptr noundef @.str.51, ptr noundef @.str.52)
  store ptr %57, ptr %4, align 8, !tbaa !4
  %58 = load ptr, ptr %4, align 8, !tbaa !4
  %59 = call i32 @test_ptr(ptr noundef @.str.18, i32 noundef 121, ptr noundef @.str.53, ptr noundef %58)
  %60 = icmp ne i32 %59, 0
  br i1 %60, label %61, label %65

61:                                               ; preds = %55
  %62 = load ptr, ptr %4, align 8, !tbaa !4
  %63 = call i32 @test_str_eq(ptr noundef @.str.18, i32 noundef 121, ptr noundef @.str.53, ptr noundef @.str.54, ptr noundef %62, ptr noundef @.str.55)
  %64 = icmp ne i32 %63, 0
  br i1 %64, label %66, label %65

65:                                               ; preds = %61, %55
  call void (ptr, ...) @test_note(ptr noundef @.str.56)
  store i32 0, ptr %1, align 4
  store i32 1, ptr %6, align 4
  br label %104

66:                                               ; preds = %61
  %67 = load i32, ptr @test_providers, align 4, !tbaa !11
  %68 = icmp ne i32 %67, 0
  br i1 %68, label %69, label %103

69:                                               ; preds = %66
  store i64 0, ptr %3, align 8, !tbaa !19
  %70 = load ptr, ptr @conf, align 8, !tbaa !9
  %71 = call i32 @NCONF_get_number_e(ptr noundef %70, ptr noundef @.str.58, ptr noundef @.str.59, ptr noundef %3)
  %72 = call i32 @test_int_eq(ptr noundef @.str.18, i32 noundef 129, ptr noundef @.str.57, ptr noundef @.str.40, i32 noundef %71, i32 noundef 1)
  %73 = icmp ne i32 %72, 0
  br i1 %73, label %74, label %79

74:                                               ; preds = %69
  %75 = load i64, ptr %3, align 8, !tbaa !19
  %76 = trunc i64 %75 to i32
  %77 = call i32 @test_int_eq(ptr noundef @.str.18, i32 noundef 130, ptr noundef @.str.43, ptr noundef @.str.40, i32 noundef %76, i32 noundef 1)
  %78 = icmp ne i32 %77, 0
  br i1 %78, label %80, label %79

79:                                               ; preds = %74, %69
  call void (ptr, ...) @test_note(ptr noundef @.str.60)
  store i32 0, ptr %1, align 4
  store i32 1, ptr %6, align 4
  br label %104

80:                                               ; preds = %74
  store i64 0, ptr %3, align 8, !tbaa !19
  %81 = load ptr, ptr @conf, align 8, !tbaa !9
  %82 = call i32 @NCONF_get_number_e(ptr noundef %81, ptr noundef @.str.62, ptr noundef @.str.59, ptr noundef %3)
  %83 = call i32 @test_int_eq(ptr noundef @.str.18, i32 noundef 135, ptr noundef @.str.61, ptr noundef @.str.40, i32 noundef %82, i32 noundef 1)
  %84 = icmp ne i32 %83, 0
  br i1 %84, label %85, label %90

85:                                               ; preds = %80
  %86 = load i64, ptr %3, align 8, !tbaa !19
  %87 = trunc i64 %86 to i32
  %88 = call i32 @test_int_eq(ptr noundef @.str.18, i32 noundef 136, ptr noundef @.str.43, ptr noundef @.str.40, i32 noundef %87, i32 noundef 1)
  %89 = icmp ne i32 %88, 0
  br i1 %89, label %91, label %90

90:                                               ; preds = %85, %80
  call void (ptr, ...) @test_note(ptr noundef @.str.63)
  store i32 0, ptr %1, align 4
  store i32 1, ptr %6, align 4
  br label %104

91:                                               ; preds = %85
  store i64 0, ptr %3, align 8, !tbaa !19
  %92 = load ptr, ptr @conf, align 8, !tbaa !9
  %93 = call i32 @NCONF_get_number_e(ptr noundef %92, ptr noundef @.str.65, ptr noundef @.str.59, ptr noundef %3)
  %94 = call i32 @test_int_eq(ptr noundef @.str.18, i32 noundef 141, ptr noundef @.str.64, ptr noundef @.str.40, i32 noundef %93, i32 noundef 1)
  %95 = icmp ne i32 %94, 0
  br i1 %95, label %96, label %101

96:                                               ; preds = %91
  %97 = load i64, ptr %3, align 8, !tbaa !19
  %98 = trunc i64 %97 to i32
  %99 = call i32 @test_int_eq(ptr noundef @.str.18, i32 noundef 142, ptr noundef @.str.43, ptr noundef @.str.40, i32 noundef %98, i32 noundef 1)
  %100 = icmp ne i32 %99, 0
  br i1 %100, label %102, label %101

101:                                              ; preds = %96, %91
  call void (ptr, ...) @test_note(ptr noundef @.str.66)
  store i32 0, ptr %1, align 4
  store i32 1, ptr %6, align 4
  br label %104

102:                                              ; preds = %96
  br label %103

103:                                              ; preds = %102, %66
  store i32 1, ptr %1, align 4
  store i32 1, ptr %6, align 4
  br label %104

104:                                              ; preds = %103, %101, %90, %79, %65, %54, %43, %32, %26, %21, %20
  call void @llvm.lifetime.end.p0(i64 8, ptr %5) #5
  call void @llvm.lifetime.end.p0(i64 8, ptr %4) #5
  call void @llvm.lifetime.end.p0(i64 8, ptr %3) #5
  call void @llvm.lifetime.end.p0(i64 8, ptr %2) #5
  %105 = load i32, ptr %1, align 4
  ret i32 %105
}