; Function Attrs: nounwind uwtable
define internal range(i32 0, 2) i32 @test_load_config() #1 {
  %1 = alloca i64, align 8
  %2 = alloca i64, align 8
  call void @llvm.lifetime.start.p0(i64 8, ptr nonnull %1) #8
  call void @llvm.lifetime.start.p0(i64 8, ptr nonnull %2) #8
  %3 = load ptr, ptr @conf, align 8, !tbaa !4
  %4 = load ptr, ptr @in, align 8, !tbaa !11
  %5 = call i32 @NCONF_load_bio(ptr noundef %3, ptr noundef %4, ptr noundef nonnull %1) #8
  %6 = call i32 @test_int_gt(ptr noundef nonnull @.str.18, i32 noundef 86, ptr noundef nonnull @.str.32, ptr noundef nonnull @.str.33, i32 noundef %5, i32 noundef 0) #8
  %.not = icmp eq i32 %6, 0
  br i1 %.not, label %11, label %7

7:                                                ; preds = %0
  %8 = call i64 @ERR_peek_error() #8
  %9 = trunc i64 %8 to i32
  %10 = call i32 @test_int_eq(ptr noundef nonnull @.str.18, i32 noundef 87, ptr noundef nonnull @.str.34, ptr noundef nonnull @.str.33, i32 noundef %9, i32 noundef 0) #8
  %.not4 = icmp eq i32 %10, 0
  br i1 %.not4, label %11, label %14

11:                                               ; preds = %7, %0
  %.b2 = load i1, ptr @expect_failure, align 4
  br i1 %.b2, label %74, label %12

12:                                               ; preds = %11
  %13 = load i64, ptr %1, align 8, !tbaa !17
  call void (ptr, ...) @test_note(ptr noundef nonnull @.str.35, i64 noundef %13) #8
  br label %74

14:                                               ; preds = %7
  %.b = load i1, ptr @expect_failure, align 4
  br i1 %.b, label %15, label %16

15:                                               ; preds = %14
  call void (ptr, ...) @test_note(ptr noundef nonnull @.str.36) #8
  br label %74

16:                                               ; preds = %14
  %17 = load ptr, ptr @conf, align 8, !tbaa !4
  %18 = call i32 @CONF_modules_load(ptr noundef %17, ptr noundef null, i64 noundef 0) #8
  %19 = call i32 @test_int_gt(ptr noundef nonnull @.str.18, i32 noundef 98, ptr noundef nonnull @.str.37, ptr noundef nonnull @.str.33, i32 noundef %18, i32 noundef 0) #8
  %.not5 = icmp eq i32 %19, 0
  br i1 %.not5, label %20, label %21

20:                                               ; preds = %16
  call void (ptr, ...) @test_note(ptr noundef nonnull @.str.38) #8
  br label %74

21:                                               ; preds = %16
  store i64 0, ptr %2, align 8, !tbaa !17
  %22 = load ptr, ptr @conf, align 8, !tbaa !4
  %23 = call i32 @NCONF_get_number_e(ptr noundef %22, ptr noundef nonnull @.str.41, ptr noundef nonnull @.str.42, ptr noundef nonnull %2) #8
  %24 = call i32 @test_int_eq(ptr noundef nonnull @.str.18, i32 noundef 105, ptr noundef nonnull @.str.39, ptr noundef nonnull @.str.40, i32 noundef %23, i32 noundef 1) #8
  %.not6 = icmp eq i32 %24, 0
  br i1 %.not6, label %29, label %25

25:                                               ; preds = %21
  %26 = load i64, ptr %2, align 8, !tbaa !17
  %27 = trunc i64 %26 to i32
  %28 = call i32 @test_int_eq(ptr noundef nonnull @.str.18, i32 noundef 106, ptr noundef nonnull @.str.43, ptr noundef nonnull @.str.44, i32 noundef %27, i32 noundef 365) #8
  %.not7 = icmp eq i32 %28, 0
  br i1 %.not7, label %29, label %30

29:                                               ; preds = %25, %21
  call void (ptr, ...) @test_note(ptr noundef nonnull @.str.45) #8
  br label %74

30:                                               ; preds = %25
  store i64 0, ptr %2, align 8, !tbaa !17
  %31 = load ptr, ptr @conf, align 8, !tbaa !4
  %32 = call i32 @NCONF_get_number_e(ptr noundef %31, ptr noundef nonnull @.str.47, ptr noundef nonnull @.str.48, ptr noundef nonnull %2) #8
  %33 = call i32 @test_int_eq(ptr noundef nonnull @.str.18, i32 noundef 113, ptr noundef nonnull @.str.46, ptr noundef nonnull @.str.40, i32 noundef %32, i32 noundef 1) #8
  %.not8 = icmp eq i32 %33, 0
  br i1 %.not8, label %38, label %34

34:                                               ; preds = %30
  %35 = load i64, ptr %2, align 8, !tbaa !17
  %36 = trunc i64 %35 to i32
  %37 = call i32 @test_int_eq(ptr noundef nonnull @.str.18, i32 noundef 114, ptr noundef nonnull @.str.43, ptr noundef nonnull @.str.49, i32 noundef %36, i32 noundef 2048) #8
  %.not9 = icmp eq i32 %37, 0
  br i1 %.not9, label %38, label %39

38:                                               ; preds = %34, %30
  call void (ptr, ...) @test_note(ptr noundef nonnull @.str.50) #8
  br label %74

39:                                               ; preds = %34
  %40 = load ptr, ptr @conf, align 8, !tbaa !4
  %41 = call ptr @NCONF_get_string(ptr noundef %40, ptr noundef nonnull @.str.51, ptr noundef nonnull @.str.52) #8
  %42 = call i32 @test_ptr(ptr noundef nonnull @.str.18, i32 noundef 121, ptr noundef nonnull @.str.53, ptr noundef %41) #8
  %.not10 = icmp eq i32 %42, 0
  br i1 %.not10, label %45, label %43

43:                                               ; preds = %39
  %44 = call i32 @test_str_eq(ptr noundef nonnull @.str.18, i32 noundef 121, ptr noundef nonnull @.str.53, ptr noundef nonnull @.str.54, ptr noundef %41, ptr noundef nonnull @.str.55) #8
  %.not11 = icmp eq i32 %44, 0
  br i1 %.not11, label %45, label %46

45:                                               ; preds = %43, %39
  call void (ptr, ...) @test_note(ptr noundef nonnull @.str.56) #8
  br label %74

46:                                               ; preds = %43
  %.b3 = load i1, ptr @test_providers, align 4
  br i1 %.b3, label %47, label %74

47:                                               ; preds = %46
  store i64 0, ptr %2, align 8, !tbaa !17
  %48 = load ptr, ptr @conf, align 8, !tbaa !4
  %49 = call i32 @NCONF_get_number_e(ptr noundef %48, ptr noundef nonnull @.str.58, ptr noundef nonnull @.str.59, ptr noundef nonnull %2) #8
  %50 = call i32 @test_int_eq(ptr noundef nonnull @.str.18, i32 noundef 129, ptr noundef nonnull @.str.57, ptr noundef nonnull @.str.40, i32 noundef %49, i32 noundef 1) #8
  %.not12 = icmp eq i32 %50, 0
  br i1 %.not12, label %55, label %51

51:                                               ; preds = %47
  %52 = load i64, ptr %2, align 8, !tbaa !17
  %53 = trunc i64 %52 to i32
  %54 = call i32 @test_int_eq(ptr noundef nonnull @.str.18, i32 noundef 130, ptr noundef nonnull @.str.43, ptr noundef nonnull @.str.40, i32 noundef %53, i32 noundef 1) #8
  %.not13 = icmp eq i32 %54, 0
  br i1 %.not13, label %55, label %56

55:                                               ; preds = %51, %47
  call void (ptr, ...) @test_note(ptr noundef nonnull @.str.60) #8
  br label %74

56:                                               ; preds = %51
  store i64 0, ptr %2, align 8, !tbaa !17
  %57 = load ptr, ptr @conf, align 8, !tbaa !4
  %58 = call i32 @NCONF_get_number_e(ptr noundef %57, ptr noundef nonnull @.str.62, ptr noundef nonnull @.str.59, ptr noundef nonnull %2) #8
  %59 = call i32 @test_int_eq(ptr noundef nonnull @.str.18, i32 noundef 135, ptr noundef nonnull @.str.61, ptr noundef nonnull @.str.40, i32 noundef %58, i32 noundef 1) #8
  %.not14 = icmp eq i32 %59, 0
  br i1 %.not14, label %64, label %60

60:                                               ; preds = %56
  %61 = load i64, ptr %2, align 8, !tbaa !17
  %62 = trunc i64 %61 to i32
  %63 = call i32 @test_int_eq(ptr noundef nonnull @.str.18, i32 noundef 136, ptr noundef nonnull @.str.43, ptr noundef nonnull @.str.40, i32 noundef %62, i32 noundef 1) #8
  %.not15 = icmp eq i32 %63, 0
  br i1 %.not15, label %64, label %65

64:                                               ; preds = %60, %56
  call void (ptr, ...) @test_note(ptr noundef nonnull @.str.63) #8
  br label %74

65:                                               ; preds = %60
  store i64 0, ptr %2, align 8, !tbaa !17
  %66 = load ptr, ptr @conf, align 8, !tbaa !4
  %67 = call i32 @NCONF_get_number_e(ptr noundef %66, ptr noundef nonnull @.str.65, ptr noundef nonnull @.str.59, ptr noundef nonnull %2) #8
  %68 = call i32 @test_int_eq(ptr noundef nonnull @.str.18, i32 noundef 141, ptr noundef nonnull @.str.64, ptr noundef nonnull @.str.40, i32 noundef %67, i32 noundef 1) #8
  %.not16 = icmp eq i32 %68, 0
  br i1 %.not16, label %73, label %69

69:                                               ; preds = %65
  %70 = load i64, ptr %2, align 8, !tbaa !17
  %71 = trunc i64 %70 to i32
  %72 = call i32 @test_int_eq(ptr noundef nonnull @.str.18, i32 noundef 142, ptr noundef nonnull @.str.43, ptr noundef nonnull @.str.40, i32 noundef %71, i32 noundef 1) #8
  %.not17 = icmp eq i32 %72, 0
  br i1 %.not17, label %73, label %74

73:                                               ; preds = %69, %65
  call void (ptr, ...) @test_note(ptr noundef nonnull @.str.66) #8
  br label %74

74:                                               ; preds = %46, %69, %11, %73, %64, %55, %45, %38, %29, %20, %15, %12
  %.0 = phi i32 [ 0, %15 ], [ 0, %73 ], [ 0, %64 ], [ 0, %55 ], [ 0, %45 ], [ 0, %38 ], [ 0, %29 ], [ 0, %20 ], [ 0, %12 ], [ 1, %11 ], [ 1, %69 ], [ 1, %46 ]
  call void @llvm.lifetime.end.p0(i64 8, ptr nonnull %2) #8
  call void @llvm.lifetime.end.p0(i64 8, ptr nonnull %1) #8
  ret i32 %.0
}